target datalayout = "e-m:e-p270:32:32-p271:32:32-p272:64:64-i64:64-i128:128-f80:128-n8:16:32:64-S128"
target triple = "x86_64-pc-linux-gnu"

%"class.std::ios_base" = type { ptr, i64, i64, i32, i32, i32, ptr, %"struct.std::ios_base::_Words", [8 x %"struct.std::ios_base::_Words"], i32, ptr, %"class.std::locale" }
%"struct.std::ios_base::_Words" = type { ptr, i64 }
%"class.std::locale" = type { ptr }

@.str.76 = private unnamed_addr constant [2 x i8] c"0\00", align 1

; Function Attrs: inlinehint mustprogress nounwind uwtable
define linkonce_odr dso_local noundef i32 @_ZStorSt12_Ios_IostateS_(i32 noundef %0, i32 noundef %1) #5 comdat {
  %3 = alloca i32, align 4
  %4 = alloca i32, align 4
  store i32 %0, ptr %3, align 4, !tbaa !1539
  store i32 %1, ptr %4, align 4, !tbaa !1539
  %5 = load i32, ptr %3, align 4, !tbaa !1539
  %6 = load i32, ptr %4, align 4, !tbaa !1539
  %7 = or i32 %5, %6
  ret i32 %7
}

; Function Attrs: mustprogress nounwind uwtable
define available_externally noundef i32 @_ZNKSt9basic_iosIcSt11char_traitsIcEE7rdstateEv(ptr noundef nonnull align 8 dereferenceable(264) %0) #7 align 2 {
  %2 = alloca ptr, align 8
  store ptr %0, ptr %2, align 8, !tbaa !1537
  %3 = load ptr, ptr %2, align 8
  %4 = getelementptr inbounds nuw %"class.std::ios_base", ptr %3, i32 0, i32 5
  %5 = load i32, ptr %4, align 8, !tbaa !1540
  ret i32 %5
}

; Function Attrs: mustprogress nounwind uwtable
define linkonce_odr dso_local noundef i64 @_ZNSt11char_traitsIcE6lengthEPKc(ptr noundef %0) #7 comdat align 2 {
  %2 = alloca ptr, align 8
  store ptr %0, ptr %2, align 8, !tbaa !32
  %3 = load ptr, ptr %2, align 8, !tbaa !32
  %4 = call i64 @strlen(ptr noundef %3) #3
  ret i64 %4
}

; Function Attrs: mustprogress uwtable
define available_externally void @_ZNSt9basic_iosIcSt11char_traitsIcEE8setstateESt12_Ios_Iostate(ptr noundef nonnull align 8 dereferenceable(264) %0, i32 noundef %1) #4 align 2 {
  %3 = alloca ptr, align 8
  %4 = alloca i32, align 4
  store ptr %0, ptr %3, align 8, !tbaa !1537
  store i32 %1, ptr %4, align 4, !tbaa !1539
  %5 = load ptr, ptr %3, align 8
  %6 = call noundef i32 @_ZNKSt9basic_iosIcSt11char_traitsIcEE7rdstateEv(ptr noundef nonnull align 8 dereferenceable(264) %5)
  %7 = load i32, ptr %4, align 4, !tbaa !1539
  %8 = call noundef i32 @_ZStorSt12_Ios_IostateS_(i32 noundef %6, i32 noundef %7)
  call void @_ZNSt9basic_iosIcSt11char_traitsIcEE5clearESt12_Ios_Iostate(ptr noundef nonnull align 8 dereferenceable(264) %5, i32 noundef %8)
  ret void
}

; Function Attrs: inlinehint mustprogress uwtable
define available_externally noundef nonnull align 8 dereferenceable(8) ptr @_ZStlsISt11char_traitsIcEERSt13basic_ostreamIcT_ES5_PKc(ptr noundef nonnull align 8 dereferenceable(8) %0, ptr noundef %1) #11 {
  %3 = alloca ptr, align 8
  %4 = alloca ptr, align 8
  store ptr %0, ptr %3, align 8, !tbaa !187
  store ptr %1, ptr %4, align 8, !tbaa !32
  %5 = load ptr, ptr %4, align 8, !tbaa !32
  %6 = icmp ne ptr %5, null
  br i1 %6, label %13, label %7

7:                                                ; preds = %2
  %8 = load ptr, ptr %3, align 8, !tbaa !187
  %9 = load ptr, ptr %8, align 8, !tbaa !50
  %10 = getelementptr i8, ptr %9, i64 -24
  %11 = load i64, ptr %10, align 8
  %12 = getelementptr inbounds i8, ptr %8, i64 %11
  call void @_ZNSt9basic_iosIcSt11char_traitsIcEE8setstateESt12_Ios_Iostate(ptr noundef nonnull align 8 dereferenceable(264) %12, i32 noundef 1)
  br label %19

13:                                               ; preds = %2
  %14 = load ptr, ptr %3, align 8, !tbaa !187
  %15 = load ptr, ptr %4, align 8, !tbaa !32
  %16 = load ptr, ptr %4, align 8, !tbaa !32
  %17 = call noundef i64 @_ZNSt11char_traitsIcE6lengthEPKc(ptr noundef %16)
  %18 = call noundef nonnull align 8 dereferenceable(8) ptr @_ZSt16__ostream_insertIcSt11char_traitsIcEERSt13basic_ostreamIT_T0_ES6_PKS3_l(ptr noundef nonnull align 8 dereferenceable(8) %14, ptr noundef %15, i64 noundef %17)
  br label %19

19:                                               ; preds = %13, %7
  %20 = load ptr, ptr %3, align 8, !tbaa !187
  ret ptr %20
}

; Function Attrs: mustprogress uwtable
define dso_local void @_ZN7testing8internal7PrintToEoPSo(i64 noundef %0, i64 noundef %1, ptr noundef %2) #4 {
  %4 = alloca i128, align 16
  %5 = alloca i128, align 16
  %6 = alloca ptr, align 8
  %7 = alloca [40 x i8], align 16
  %8 = alloca ptr, align 8
  %9 = alloca i64, align 8
  %10 = alloca i64, align 8
  %11 = alloca i64, align 8
  %12 = alloca i64, align 8
  %13 = alloca i8, align 1
  %14 = getelementptr inbounds nuw { i64, i64 }, ptr %4, i32 0, i32 0
  store i64 %0, ptr %14, align 16
  %15 = getelementptr inbounds nuw { i64, i64 }, ptr %4, i32 0, i32 1
  store i64 %1, ptr %15, align 8
  %16 = load i128, ptr %4, align 16, !tbaa !361
  store i128 %16, ptr %5, align 16, !tbaa !361
  store ptr %2, ptr %6, align 8, !tbaa !187
  %17 = load i128, ptr %5, align 16, !tbaa !361
  %18 = icmp eq i128 %17, 0
  br i1 %18, label %19, label %22

19:                                               ; preds = %3
  %20 = load ptr, ptr %6, align 8, !tbaa !187
  %21 = call noundef nonnull align 8 dereferenceable(8) ptr @_ZStlsISt11char_traitsIcEERSt13basic_ostreamIcT_ES5_PKc(ptr noundef nonnull align 8 dereferenceable(8) %20, ptr noundef @.str.76)
  br label %71

22:                                               ; preds = %3
  call void @llvm.lifetime.start.p0(i64 40, ptr %7) #3
  call void @llvm.lifetime.start.p0(i64 8, ptr %8) #3
  %23 = getelementptr inbounds [40 x i8], ptr %7, i64 0, i64 0
  %24 = getelementptr inbounds nuw i8, ptr %23, i64 40
  store ptr %24, ptr %8, align 8, !tbaa !32
  call void @llvm.lifetime.start.p0(i64 8, ptr %9) #3
  %25 = load i128, ptr %5, align 16, !tbaa !361
  %26 = lshr i128 %25, 64
  %27 = trunc i128 %26 to i64
  store i64 %27, ptr %9, align 8, !tbaa !191
  call void @llvm.lifetime.start.p0(i64 8, ptr %10) #3
  %28 = load i128, ptr %5, align 16, !tbaa !361
  %29 = trunc i128 %28 to i64
  store i64 %29, ptr %10, align 8, !tbaa !191
  %30 = load ptr, ptr %8, align 8, !tbaa !32
  %31 = getelementptr inbounds i8, ptr %30, i32 -1
  store ptr %31, ptr %8, align 8, !tbaa !32
  store i8 0, ptr %31, align 1, !tbaa !172
  br label %32

32:                                               ; preds = %40, %22
  %33 = load i64, ptr %9, align 8, !tbaa !191
  %34 = icmp ne i64 %33, 0
  br i1 %34, label %38, label %35

35:                                               ; preds = %32
  %36 = load i64, ptr %10, align 8, !tbaa !191
  %37 = icmp ne i64 %36, 0
  br label %38

38:                                               ; preds = %35, %32
  %39 = phi i1 [ true, %32 ], [ %37, %35 ]
  br i1 %39, label %40, label %67

40:                                               ; preds = %38
  call void @llvm.lifetime.start.p0(i64 8, ptr %11) #3
  %41 = load i64, ptr %9, align 8, !tbaa !191
  %42 = urem i64 %41, 10
  store i64 %42, ptr %11, align 8, !tbaa !191
  %43 = load i64, ptr %9, align 8, !tbaa !191
  %44 = udiv i64 %43, 10
  store i64 %44, ptr %9, align 8, !tbaa !191
  call void @llvm.lifetime.start.p0(i64 8, ptr %12) #3
  %45 = load i64, ptr %11, align 8, !tbaa !191
  %46 = mul i64 6, %45
  %47 = load i64, ptr %10, align 8, !tbaa !191
  %48 = urem i64 %47, 10
  %49 = add i64 %46, %48
  store i64 %49, ptr %12, align 8, !tbaa !191
  %50 = load i64, ptr %10, align 8, !tbaa !191
  %51 = udiv i64 %50, 10
  %52 = load i64, ptr %11, align 8, !tbaa !191
  %53 = mul i64 %52, 1844674407370955161
  %54 = add i64 %51, %53
  %55 = load i64, ptr %12, align 8, !tbaa !191
  %56 = udiv i64 %55, 10
  %57 = add i64 %54, %56
  store i64 %57, ptr %10, align 8, !tbaa !191
  call void @llvm.lifetime.start.p0(i64 1, ptr %13) #3
  %58 = load i64, ptr %12, align 8, !tbaa !191
  %59 = urem i64 %58, 10
  %60 = trunc i64 %59 to i8
  store i8 %60, ptr %13, align 1, !tbaa !172
  %61 = load i8, ptr %13, align 1, !tbaa !172
  %62 = sext i8 %61 to i32
  %63 = add nsw i32 48, %62
  %64 = trunc i32 %63 to i8
  %65 = load ptr, ptr %8, align 8, !tbaa !32
  %66 = getelementptr inbounds i8, ptr %65, i32 -1
  store ptr %66, ptr %8, align 8, !tbaa !32
  store i8 %64, ptr %66, align 1, !tbaa !172
  call void @llvm.lifetime.end.p0(i64 1, ptr %13) #3
  call void @llvm.lifetime.end.p0(i64 8, ptr %12) #3
  call void @llvm.lifetime.end.p0(i64 8, ptr %11) #3
  br label %32, !llvm.loop !363

67:                                               ; preds = %38
  %68 = load ptr, ptr %6, align 8, !tbaa !187
  %69 = load ptr, ptr %8, align 8, !tbaa !32
  %70 = call noundef nonnull align 8 dereferenceable(8) ptr @_ZStlsISt11char_traitsIcEERSt13basic_ostreamIcT_ES5_PKc(ptr noundef nonnull align 8 dereferenceable(8) %68, ptr noundef %69)
  call void @llvm.lifetime.end.p0(i64 8, ptr %10) #3
  call void @llvm.lifetime.end.p0(i64 8, ptr %9) #3
  call void @llvm.lifetime.end.p0(i64 8, ptr %8) #3
  call void @llvm.lifetime.end.p0(i64 40, ptr %7) #3
  br label %71

71:                                               ; preds = %67, %19
  ret void
}